; Function Attrs: nounwind uwtable
define internal i32 @get_rsa_payload_c2(i32 noundef %0, ptr noundef captures(address_is_null) %1, ptr noundef %2) #0 {
  %4 = alloca [10 x ptr], align 16
  %5 = alloca [10 x ptr], align 16
  %6 = getelementptr inbounds nuw i8, ptr %2, i64 32
  %7 = load ptr, ptr %6, align 8, !tbaa !35
  %8 = tail call i32 @EVP_PKEY_get_base_id(ptr noundef %7) #8
  %.not = icmp eq i32 %8, 6
  br i1 %.not, label %12, label %9

9:                                                ; preds = %3
  %10 = load ptr, ptr %6, align 8, !tbaa !35
  %11 = tail call i32 @EVP_PKEY_get_base_id(ptr noundef %10) #8
  %.not5 = icmp eq i32 %11, 912
  br i1 %.not5, label %12, label %get_rsa_payload_coefficient.exit

12:                                               ; preds = %9, %3
  %13 = load ptr, ptr %6, align 8, !tbaa !35
  %14 = tail call ptr @EVP_PKEY_get0_RSA(ptr noundef %13) #8
  %15 = tail call i32 @RSA_get_multi_prime_extra_count(ptr noundef %14) #8
  call void @llvm.lifetime.start.p0(i64 80, ptr nonnull %4) #8
  call void @llvm.lifetime.start.p0(i64 80, ptr nonnull %5) #8
  %.not7 = icmp eq i32 %15, 0
  br i1 %.not7, label %.thread, label %16

16:                                               ; preds = %12
  %17 = call i32 @RSA_get0_multi_prime_crt_params(ptr noundef %14, ptr noundef nonnull %4, ptr noundef nonnull %5) #8
  %.not.i = icmp eq i32 %17, 0
  br i1 %.not.i, label %.thread, label %18

.thread:                                          ; preds = %16, %12
  call void @llvm.lifetime.end.p0(i64 80, ptr nonnull %5) #8
  call void @llvm.lifetime.end.p0(i64 80, ptr nonnull %4) #8
  br label %get_rsa_payload_coefficient.exit

18:                                               ; preds = %16
  %19 = load ptr, ptr %5, align 16, !tbaa !82
  call void @llvm.lifetime.end.p0(i64 80, ptr nonnull %5) #8
  call void @llvm.lifetime.end.p0(i64 80, ptr nonnull %4) #8
  %20 = icmp eq ptr %19, null
  br i1 %20, label %get_rsa_payload_coefficient.exit, label %21

21:                                               ; preds = %18
  %22 = getelementptr inbounds nuw i8, ptr %2, i64 48
  %23 = load ptr, ptr %22, align 8, !tbaa !37
  %24 = getelementptr inbounds nuw i8, ptr %23, i64 8
  %25 = load i32, ptr %24, align 8, !tbaa !57
  %.not.i.i = icmp eq i32 %25, 2
  br i1 %.not.i.i, label %26, label %get_rsa_payload_coefficient.exit

26:                                               ; preds = %21
  store ptr %19, ptr %6, align 8, !tbaa !35
  %27 = call i32 @default_fixup_args(i32 noundef %0, ptr noundef %1, ptr noundef nonnull %2)
  br label %get_rsa_payload_coefficient.exit

get_rsa_payload_coefficient.exit:                 ; preds = %26, %21, %18, %.thread, %9
  %.0 = phi i32 [ 0, %9 ], [ %27, %26 ], [ 0, %18 ], [ 0, %21 ], [ 0, %.thread ]
  ret i32 %.0
}